; Function Attrs: nofree norecurse nosync nounwind memory(argmem: read) uwtable
define internal i32 @vsad_intra16_c(ptr readnone captures(none) %0, ptr noundef readonly captures(none) %1, ptr readnone captures(none) %2, i64 noundef %3, i32 noundef %4) #5 {
  %6 = icmp sgt i32 %4, 1
  br i1 %6, label %.preheader, label %._crit_edge

.preheader:                                       ; preds = %5, %48
  %.083 = phi i32 [ %49, %48 ], [ 1, %5 ]
  %.06982 = phi i32 [ %46, %48 ], [ 0, %5 ]
  %.07081 = phi ptr [ %7, %48 ], [ %1, %5 ]
  %7 = getelementptr i8, ptr %.07081, i64 %3
  br label %8

8:                                                ; preds = %.preheader, %8
  %indvars.iv = phi i64 [ 0, %.preheader ], [ %indvars.iv.next, %8 ]
  %.179 = phi i32 [ %.06982, %.preheader ], [ %46, %8 ]
  %9 = getelementptr inbounds nuw i8, ptr %.07081, i64 %indvars.iv
  %10 = load i8, ptr %9, align 1, !tbaa !20
  %11 = zext i8 %10 to i32
  %12 = getelementptr i8, ptr %7, i64 %indvars.iv
  %13 = load i8, ptr %12, align 1, !tbaa !20
  %14 = zext i8 %13 to i32
  %15 = sub nsw i32 %11, %14
  %16 = tail call i32 @llvm.abs.i32(i32 %15, i1 true)
  %17 = getelementptr inbounds nuw i8, ptr %9, i64 1
  %18 = load i8, ptr %17, align 1, !tbaa !20
  %19 = zext i8 %18 to i32
  %20 = getelementptr i8, ptr %12, i64 1
  %21 = load i8, ptr %20, align 1, !tbaa !20
  %22 = zext i8 %21 to i32
  %23 = sub nsw i32 %19, %22
  %24 = tail call i32 @llvm.abs.i32(i32 %23, i1 true)
  %25 = or disjoint i64 %indvars.iv, 2
  %26 = getelementptr inbounds nuw i8, ptr %.07081, i64 %25
  %27 = load i8, ptr %26, align 1, !tbaa !20
  %28 = zext i8 %27 to i32
  %29 = getelementptr i8, ptr %7, i64 %25
  %30 = load i8, ptr %29, align 1, !tbaa !20
  %31 = zext i8 %30 to i32
  %32 = sub nsw i32 %28, %31
  %33 = tail call i32 @llvm.abs.i32(i32 %32, i1 true)
  %34 = or disjoint i64 %indvars.iv, 3
  %35 = getelementptr inbounds nuw i8, ptr %.07081, i64 %34
  %36 = load i8, ptr %35, align 1, !tbaa !20
  %37 = zext i8 %36 to i32
  %38 = getelementptr i8, ptr %7, i64 %34
  %39 = load i8, ptr %38, align 1, !tbaa !20
  %40 = zext i8 %39 to i32
  %41 = sub nsw i32 %37, %40
  %42 = tail call i32 @llvm.abs.i32(i32 %41, i1 true)
  %43 = add i32 %16, %.179
  %44 = add i32 %43, %24
  %45 = add i32 %44, %33
  %46 = add i32 %45, %42
  %indvars.iv.next = add nuw nsw i64 %indvars.iv, 4
  %47 = icmp samesign ult i64 %indvars.iv, 12
  br i1 %47, label %8, label %48, !llvm.loop !94

48:                                               ; preds = %8
  %49 = add nuw nsw i32 %.083, 1
  %exitcond.not = icmp eq i32 %49, %4
  br i1 %exitcond.not, label %._crit_edge, label %.preheader, !llvm.loop !95

._crit_edge:                                      ; preds = %48, %5
  %.069.lcssa = phi i32 [ 0, %5 ], [ %46, %48 ]
  ret i32 %.069.lcssa
}